target datalayout = "e-m:e-p270:32:32-p271:32:32-p272:64:64-i64:64-i128:128-f80:128-n8:16:32:64-S128"
target triple = "x86_64-pc-linux-gnu"

%"class.std::__cxx11::basic_string" = type { %"struct.std::__cxx11::basic_string<char>::_Alloc_hider", i64, %union.anon }
%"struct.std::__cxx11::basic_string<char>::_Alloc_hider" = type { ptr }
%union.anon = type { i64, [8 x i8] }
%"class.std::unique_ptr" = type { %"struct.std::__uniq_ptr_data" }
%"struct.std::__uniq_ptr_data" = type { %"class.std::__uniq_ptr_impl" }
%"class.std::__uniq_ptr_impl" = type { %"class.std::tuple" }
%"class.std::tuple" = type { %"struct.std::_Tuple_impl" }
%"struct.std::_Tuple_impl" = type { %"struct.std::_Head_base.39" }
%"struct.std::_Head_base.39" = type { ptr }
%"class.std::unique_ptr.40" = type { %"struct.std::__uniq_ptr_data.41" }
%"struct.std::__uniq_ptr_data.41" = type { %"class.std::__uniq_ptr_impl.42" }
%"class.std::__uniq_ptr_impl.42" = type { %"class.std::tuple.43" }
%"class.std::tuple.43" = type { %"struct.std::_Tuple_impl.44" }
%"struct.std::_Tuple_impl.44" = type { %"struct.std::_Head_base.47" }
%"struct.std::_Head_base.47" = type { ptr }
%class.cmState = type <{ %class.cmPropertyDefinitionMap, %"class.std::vector", %"class.std::unordered_map", %"class.std::unordered_map", %"class.std::unordered_set", %class.cmPropertyMap, %"class.std::unique_ptr", %"class.std::unique_ptr.40", %class.cmLinkedTree, %class.cmLinkedTree.58, %class.cmLinkedTree.59, %class.cmLinkedTree.65, %class.cmLinkedTree.71, %"class.std::__cxx11::basic_string", %"class.std::__cxx11::basic_string", i8, i8, i8, i8, i8, i8, i8, i8, i8, i8, i8, i8, i32, i32, [4 x i8], %"class.std::optional", i8, [7 x i8] }>
%class.cmPropertyDefinitionMap = type { %"class.std::map" }
%"class.std::map" = type { %"class.std::_Rb_tree" }
%"class.std::_Rb_tree" = type { %"struct.std::_Rb_tree<std::pair<std::__cxx11::basic_string<char>, cmProperty::ScopeType>, std::pair<const std::pair<std::__cxx11::basic_string<char>, cmProperty::ScopeType>, cmPropertyDefinition>, std::_Select1st<std::pair<const std::pair<std::__cxx11::basic_string<char>, cmProperty::ScopeType>, cmPropertyDefinition>>, std::less<std::pair<std::__cxx11::basic_string<char>, cmProperty::ScopeType>>>::_Rb_tree_impl" }
%"struct.std::_Rb_tree<std::pair<std::__cxx11::basic_string<char>, cmProperty::ScopeType>, std::pair<const std::pair<std::__cxx11::basic_string<char>, cmProperty::ScopeType>, cmPropertyDefinition>, std::_Select1st<std::pair<const std::pair<std::__cxx11::basic_string<char>, cmProperty::ScopeType>, cmPropertyDefinition>>, std::less<std::pair<std::__cxx11::basic_string<char>, cmProperty::ScopeType>>>::_Rb_tree_impl" = type { [8 x i8], %"struct.std::_Rb_tree_header" }
%"struct.std::_Rb_tree_header" = type { %"struct.std::_Rb_tree_node_base", i64 }
%"struct.std::_Rb_tree_node_base" = type { i32, ptr, ptr, ptr }
%"class.std::vector" = type { %"struct.std::_Vector_base" }
%"struct.std::_Vector_base" = type { %"struct.std::_Vector_base<std::__cxx11::basic_string<char>, std::allocator<std::__cxx11::basic_string<char>>>::_Vector_impl" }
%"struct.std::_Vector_base<std::__cxx11::basic_string<char>, std::allocator<std::__cxx11::basic_string<char>>>::_Vector_impl" = type { %"struct.std::_Vector_base<std::__cxx11::basic_string<char>, std::allocator<std::__cxx11::basic_string<char>>>::_Vector_impl_data" }
%"struct.std::_Vector_base<std::__cxx11::basic_string<char>, std::allocator<std::__cxx11::basic_string<char>>>::_Vector_impl_data" = type { ptr, ptr, ptr }
%"class.std::unordered_map" = type { %"class.std::_Hashtable" }
%"class.std::_Hashtable" = type { ptr, i64, %"struct.std::__detail::_Hash_node_base", i64, %"struct.std::__detail::_Prime_rehash_policy", ptr }
%"struct.std::__detail::_Hash_node_base" = type { ptr }
%"struct.std::__detail::_Prime_rehash_policy" = type { float, i64 }
%"class.std::unordered_set" = type { %"class.std::_Hashtable.11" }
%"class.std::_Hashtable.11" = type { ptr, i64, %"struct.std::__detail::_Hash_node_base", i64, %"struct.std::__detail::_Prime_rehash_policy", ptr }
%class.cmPropertyMap = type { %"class.std::unordered_map.24" }
%"class.std::unordered_map.24" = type { %"class.std::_Hashtable.25" }
%"class.std::_Hashtable.25" = type { ptr, i64, %"struct.std::__detail::_Hash_node_base", i64, %"struct.std::__detail::_Prime_rehash_policy", ptr }
%class.cmLinkedTree = type { %"class.std::vector.48", %"class.std::vector.53" }
%"class.std::vector.48" = type { %"struct.std::_Vector_base.49" }
%"struct.std::_Vector_base.49" = type { %"struct.std::_Vector_base<cmStateDetail::BuildsystemDirectoryStateType, std::allocator<cmStateDetail::BuildsystemDirectoryStateType>>::_Vector_impl" }
%"struct.std::_Vector_base<cmStateDetail::BuildsystemDirectoryStateType, std::allocator<cmStateDetail::BuildsystemDirectoryStateType>>::_Vector_impl" = type { %"struct.std::_Vector_base<cmStateDetail::BuildsystemDirectoryStateType, std::allocator<cmStateDetail::BuildsystemDirectoryStateType>>::_Vector_impl_data" }
%"struct.std::_Vector_base<cmStateDetail::BuildsystemDirectoryStateType, std::allocator<cmStateDetail::BuildsystemDirectoryStateType>>::_Vector_impl_data" = type { ptr, ptr, ptr }
%"class.std::vector.53" = type { %"struct.std::_Vector_base.54" }
%"struct.std::_Vector_base.54" = type { %"struct.std::_Vector_base<unsigned long, std::allocator<unsigned long>>::_Vector_impl" }
%"struct.std::_Vector_base<unsigned long, std::allocator<unsigned long>>::_Vector_impl" = type { %"struct.std::_Vector_base<unsigned long, std::allocator<unsigned long>>::_Vector_impl_data" }
%"struct.std::_Vector_base<unsigned long, std::allocator<unsigned long>>::_Vector_impl_data" = type { ptr, ptr, ptr }
%class.cmLinkedTree.58 = type { %"class.std::vector", %"class.std::vector.53" }
%class.cmLinkedTree.59 = type { %"class.std::vector.60", %"class.std::vector.53" }
%"class.std::vector.60" = type { %"struct.std::_Vector_base.61" }
%"struct.std::_Vector_base.61" = type { %"struct.std::_Vector_base<cmStateDetail::PolicyStackEntry, std::allocator<cmStateDetail::PolicyStackEntry>>::_Vector_impl" }
%"struct.std::_Vector_base<cmStateDetail::PolicyStackEntry, std::allocator<cmStateDetail::PolicyStackEntry>>::_Vector_impl" = type { %"struct.std::_Vector_base<cmStateDetail::PolicyStackEntry, std::allocator<cmStateDetail::PolicyStackEntry>>::_Vector_impl_data" }
%"struct.std::_Vector_base<cmStateDetail::PolicyStackEntry, std::allocator<cmStateDetail::PolicyStackEntry>>::_Vector_impl_data" = type { ptr, ptr, ptr }
%class.cmLinkedTree.65 = type { %"class.std::vector.66", %"class.std::vector.53" }
%"class.std::vector.66" = type { %"struct.std::_Vector_base.67" }
%"struct.std::_Vector_base.67" = type { %"struct.std::_Vector_base<cmStateDetail::SnapshotDataType, std::allocator<cmStateDetail::SnapshotDataType>>::_Vector_impl" }
%"struct.std::_Vector_base<cmStateDetail::SnapshotDataType, std::allocator<cmStateDetail::SnapshotDataType>>::_Vector_impl" = type { %"struct.std::_Vector_base<cmStateDetail::SnapshotDataType, std::allocator<cmStateDetail::SnapshotDataType>>::_Vector_impl_data" }
%"struct.std::_Vector_base<cmStateDetail::SnapshotDataType, std::allocator<cmStateDetail::SnapshotDataType>>::_Vector_impl_data" = type { ptr, ptr, ptr }
%class.cmLinkedTree.71 = type { %"class.std::vector.72", %"class.std::vector.53" }
%"class.std::vector.72" = type { %"struct.std::_Vector_base.73" }
%"struct.std::_Vector_base.73" = type { %"struct.std::_Vector_base<cmDefinitions, std::allocator<cmDefinitions>>::_Vector_impl" }
%"struct.std::_Vector_base<cmDefinitions, std::allocator<cmDefinitions>>::_Vector_impl" = type { %"struct.std::_Vector_base<cmDefinitions, std::allocator<cmDefinitions>>::_Vector_impl_data" }
%"struct.std::_Vector_base<cmDefinitions, std::allocator<cmDefinitions>>::_Vector_impl_data" = type { ptr, ptr, ptr }
%"class.std::optional" = type { %"struct.std::_Optional_base" }
%"struct.std::_Optional_base" = type { %"struct.std::_Optional_payload" }
%"struct.std::_Optional_payload" = type { %"struct.std::_Optional_payload.base", [7 x i8] }
%"struct.std::_Optional_payload.base" = type { %"struct.std::_Optional_payload_base.base" }
%"struct.std::_Optional_payload_base.base" = type <{ %"union.std::_Optional_payload_base<cmDependencyProvider>::_Storage", i8 }>
%"union.std::_Optional_payload_base<cmDependencyProvider>::_Storage" = type { %class.cmDependencyProvider }
%class.cmDependencyProvider = type { %"class.std::__cxx11::basic_string", %"class.std::vector.78" }
%"class.std::vector.78" = type { %"struct.std::_Vector_base.79" }
%"struct.std::_Vector_base.79" = type { %"struct.std::_Vector_base<cmDependencyProvider::Method, std::allocator<cmDependencyProvider::Method>>::_Vector_impl" }
%"struct.std::_Vector_base<cmDependencyProvider::Method, std::allocator<cmDependencyProvider::Method>>::_Vector_impl" = type { %"struct.std::_Vector_base<cmDependencyProvider::Method, std::allocator<cmDependencyProvider::Method>>::_Vector_impl_data" }
%"struct.std::_Vector_base<cmDependencyProvider::Method, std::allocator<cmDependencyProvider::Method>>::_Vector_impl_data" = type { ptr, ptr, ptr }
%"class.cmCacheManager::CacheEntry" = type <{ %"class.std::__cxx11::basic_string", i32, [4 x i8], %class.cmPropertyMap, i8, [7 x i8] }>

; Function Attrs: mustprogress nounwind uwtable
define linkonce_odr dso_local noundef nonnull align 8 dereferenceable(8) ptr @_ZNSt10_Head_baseILm0EP14cmCacheManagerLb0EE7_M_headERKS2_(ptr noundef nonnull align 8 dereferenceable(8) %0) #6 comdat align 2 {
  %2 = alloca ptr, align 8
  store ptr %0, ptr %2, align 8, !tbaa !425
  %3 = load ptr, ptr %2, align 8, !tbaa !425
  %4 = getelementptr inbounds nuw %"struct.std::_Head_base.39", ptr %3, i32 0, i32 0
  ret ptr %4
}

; Function Attrs: mustprogress nounwind uwtable
define linkonce_odr dso_local noundef nonnull align 8 dereferenceable(8) ptr @_ZNSt11_Tuple_implILm0EJP14cmCacheManagerSt14default_deleteIS0_EEE7_M_headERKS4_(ptr noundef nonnull align 8 dereferenceable(8) %0) #6 comdat align 2 {
  %2 = alloca ptr, align 8
  store ptr %0, ptr %2, align 8, !tbaa !421
  %3 = load ptr, ptr %2, align 8, !tbaa !421
  %4 = call noundef nonnull align 8 dereferenceable(8) ptr @_ZNSt10_Head_baseILm0EP14cmCacheManagerLb0EE7_M_headERKS2_(ptr noundef nonnull align 8 dereferenceable(8) %3) #3
  ret ptr %4
}

; Function Attrs: mustprogress nounwind uwtable
define linkonce_odr dso_local noundef nonnull align 8 dereferenceable(8) ptr @_ZSt12__get_helperILm0EP14cmCacheManagerJSt14default_deleteIS0_EEERKT0_RKSt11_Tuple_implIXT_EJS4_DpT1_EE(ptr noundef nonnull align 8 dereferenceable(8) %0) #6 comdat {
  %2 = alloca ptr, align 8
  store ptr %0, ptr %2, align 8, !tbaa !421
  %3 = load ptr, ptr %2, align 8, !tbaa !421
  %4 = call noundef nonnull align 8 dereferenceable(8) ptr @_ZNSt11_Tuple_implILm0EJP14cmCacheManagerSt14default_deleteIS0_EEE7_M_headERKS4_(ptr noundef nonnull align 8 dereferenceable(8) %3) #3
  ret ptr %4
}

; Function Attrs: mustprogress nounwind uwtable
define linkonce_odr dso_local noundef nonnull align 8 dereferenceable(8) ptr @_ZSt3getILm0EJP14cmCacheManagerSt14default_deleteIS0_EEERKNSt13tuple_elementIXT_ESt5tupleIJDpT0_EEE4typeERKS8_(ptr noundef nonnull align 8 dereferenceable(8) %0) #6 comdat {
  %2 = alloca ptr, align 8
  store ptr %0, ptr %2, align 8, !tbaa !419
  %3 = load ptr, ptr %2, align 8, !tbaa !419
  %4 = call noundef nonnull align 8 dereferenceable(8) ptr @_ZSt12__get_helperILm0EP14cmCacheManagerJSt14default_deleteIS0_EEERKT0_RKSt11_Tuple_implIXT_EJS4_DpT1_EE(ptr noundef nonnull align 8 dereferenceable(8) %3) #3
  ret ptr %4
}

; Function Attrs: mustprogress nounwind uwtable
define linkonce_odr dso_local noundef ptr @_ZNKSt15__uniq_ptr_implI14cmCacheManagerSt14default_deleteIS0_EE6_M_ptrEv(ptr noundef nonnull align 8 dereferenceable(8) %0) #6 comdat align 2 {
  %2 = alloca ptr, align 8
  store ptr %0, ptr %2, align 8, !tbaa !417
  %3 = load ptr, ptr %2, align 8
  %4 = getelementptr inbounds nuw %"class.std::__uniq_ptr_impl", ptr %3, i32 0, i32 0
  %5 = call noundef nonnull align 8 dereferenceable(8) ptr @_ZSt3getILm0EJP14cmCacheManagerSt14default_deleteIS0_EEERKNSt13tuple_elementIXT_ESt5tupleIJDpT0_EEE4typeERKS8_(ptr noundef nonnull align 8 dereferenceable(8) %4) #3
  %6 = load ptr, ptr %5, align 8, !tbaa !148
  ret ptr %6
}

; Function Attrs: mustprogress nounwind uwtable
define linkonce_odr dso_local noundef i32 @_ZNK14cmCacheManager10CacheEntry7GetTypeEv(ptr noundef nonnull align 8 dereferenceable(97) %0) #6 comdat align 2 {
  %2 = alloca ptr, align 8
  store ptr %0, ptr %2, align 8, !tbaa !188
  %3 = load ptr, ptr %2, align 8
  %4 = getelementptr inbounds nuw %"class.cmCacheManager::CacheEntry", ptr %3, i32 0, i32 1
  %5 = load i32, ptr %4, align 8, !tbaa !712
  ret i32 %5
}

; Function Attrs: mustprogress nounwind uwtable
define linkonce_odr dso_local noundef ptr @_ZNKSt10unique_ptrI14cmCacheManagerSt14default_deleteIS0_EE3getEv(ptr noundef nonnull align 8 dereferenceable(8) %0) #6 comdat align 2 {
  %2 = alloca ptr, align 8
  store ptr %0, ptr %2, align 8, !tbaa !130
  %3 = load ptr, ptr %2, align 8
  %4 = getelementptr inbounds nuw %"class.std::unique_ptr", ptr %3, i32 0, i32 0
  %5 = call noundef ptr @_ZNKSt15__uniq_ptr_implI14cmCacheManagerSt14default_deleteIS0_EE6_M_ptrEv(ptr noundef nonnull align 8 dereferenceable(8) %4) #3
  ret ptr %5
}

; Function Attrs: mustprogress uwtable
define linkonce_odr dso_local noundef i32 @_ZNK14cmCacheManager17GetCacheEntryTypeERKNSt7__cxx1112basic_stringIcSt11char_traitsIcESaIcEEE(ptr noundef nonnull align 8 dereferenceable(60) %0, ptr noundef nonnull align 8 dereferenceable(32) %1) #5 comdat align 2 {
  %3 = alloca i32, align 4
  %4 = alloca ptr, align 8
  %5 = alloca ptr, align 8
  %6 = alloca ptr, align 8
  %7 = alloca i32, align 4
  store ptr %0, ptr %4, align 8, !tbaa !148
  store ptr %1, ptr %5, align 8, !tbaa !18
  %8 = load ptr, ptr %4, align 8
  call void @llvm.lifetime.start.p0(i64 8, ptr %6) #3
  %9 = load ptr, ptr %5, align 8, !tbaa !18
  %10 = call noundef ptr @_ZNK14cmCacheManager13GetCacheEntryERKNSt7__cxx1112basic_stringIcSt11char_traitsIcESaIcEEE(ptr noundef nonnull align 8 dereferenceable(60) %8, ptr noundef nonnull align 8 dereferenceable(32) %9)
  store ptr %10, ptr %6, align 8, !tbaa !188
  %11 = load ptr, ptr %6, align 8, !tbaa !188
  %12 = icmp ne ptr %11, null
  br i1 %12, label %13, label %16

13:                                               ; preds = %2
  %14 = load ptr, ptr %6, align 8, !tbaa !188
  %15 = call noundef i32 @_ZNK14cmCacheManager10CacheEntry7GetTypeEv(ptr noundef nonnull align 8 dereferenceable(97) %14)
  store i32 %15, ptr %3, align 4
  store i32 1, ptr %7, align 4
  br label %17

16:                                               ; preds = %2
  store i32 0, ptr %7, align 4
  br label %17

17:                                               ; preds = %16, %13
  call void @llvm.lifetime.end.p0(i64 8, ptr %6) #3
  %18 = load i32, ptr %7, align 4
  switch i32 %18, label %22 [
    i32 0, label %19
    i32 1, label %20
  ]

19:                                               ; preds = %17
  store i32 6, ptr %3, align 4
  br label %20

20:                                               ; preds = %19, %17
  %21 = load i32, ptr %3, align 4
  ret i32 %21

22:                                               ; preds = %17
  unreachable
}

; Function Attrs: mustprogress nounwind uwtable
define linkonce_odr dso_local noundef ptr @_ZNKSt10unique_ptrI14cmCacheManagerSt14default_deleteIS0_EEptEv(ptr noundef nonnull align 8 dereferenceable(8) %0) #6 comdat align 2 {
  %2 = alloca ptr, align 8
  store ptr %0, ptr %2, align 8, !tbaa !130
  %3 = load ptr, ptr %2, align 8
  %4 = call noundef ptr @_ZNKSt10unique_ptrI14cmCacheManagerSt14default_deleteIS0_EE3getEv(ptr noundef nonnull align 8 dereferenceable(8) %3) #3
  ret ptr %4
}

; Function Attrs: mustprogress uwtable
define dso_local noundef i32 @_ZNK7cmState17GetCacheEntryTypeERKNSt7__cxx1112basic_stringIcSt11char_traitsIcESaIcEEE(ptr noundef nonnull align 8 dereferenceable(705) %0, ptr noundef nonnull align 8 dereferenceable(32) %1) #5 align 2 {
  %3 = alloca ptr, align 8
  %4 = alloca ptr, align 8
  store ptr %0, ptr %3, align 8, !tbaa !20
  store ptr %1, ptr %4, align 8, !tbaa !18
  %5 = load ptr, ptr %3, align 8
  %6 = getelementptr inbounds nuw %class.cmState, ptr %5, i32 0, i32 6
  %7 = call noundef ptr @_ZNKSt10unique_ptrI14cmCacheManagerSt14default_deleteIS0_EEptEv(ptr noundef nonnull align 8 dereferenceable(8) %6) #3
  %8 = load ptr, ptr %4, align 8, !tbaa !18
  %9 = call noundef i32 @_ZNK14cmCacheManager17GetCacheEntryTypeERKNSt7__cxx1112basic_stringIcSt11char_traitsIcESaIcEEE(ptr noundef nonnull align 8 dereferenceable(60) %7, ptr noundef nonnull align 8 dereferenceable(32) %8)
  ret i32 %9
}