; Function Attrs: mustprogress uwtable
define dso_local noundef i32 @_ZNK7cmState17GetCacheEntryTypeERKNSt7__cxx1112basic_stringIcSt11char_traitsIcESaIcEEE(ptr noundef nonnull readonly align 8 captures(none) dereferenceable(705) %0, ptr noundef nonnull align 8 dereferenceable(32) %1) local_unnamed_addr #5 align 2 {
  %3 = getelementptr inbounds nuw i8, ptr %0, i64 296
  %4 = load ptr, ptr %3, align 8, !tbaa !120
  %5 = tail call noundef ptr @_ZNK14cmCacheManager13GetCacheEntryERKNSt7__cxx1112basic_stringIcSt11char_traitsIcESaIcEEE(ptr noundef nonnull align 8 dereferenceable(60) %4, ptr noundef nonnull align 8 dereferenceable(32) %1)
  %.not.not.i = icmp eq ptr %5, null
  br i1 %.not.not.i, label %_ZNK14cmCacheManager17GetCacheEntryTypeERKNSt7__cxx1112basic_stringIcSt11char_traitsIcESaIcEEE.exit, label %6

6:                                                ; preds = %2
  %7 = getelementptr inbounds nuw i8, ptr %5, i64 32
  %8 = load i32, ptr %7, align 8, !tbaa !158
  br label %_ZNK14cmCacheManager17GetCacheEntryTypeERKNSt7__cxx1112basic_stringIcSt11char_traitsIcESaIcEEE.exit

_ZNK14cmCacheManager17GetCacheEntryTypeERKNSt7__cxx1112basic_stringIcSt11char_traitsIcESaIcEEE.exit: ; preds = %2, %6
  %spec.select.i = phi i32 [ %8, %6 ], [ 6, %2 ]
  ret i32 %spec.select.i
}